; Function Attrs: nounwind uwtable
define dso_local void @GUC_yyrestart(ptr noundef %0, ptr noundef captures(none) %1) local_unnamed_addr #0 {
  %3 = getelementptr inbounds nuw i8, ptr %1, i64 40
  %4 = load ptr, ptr %3, align 8
  %.not = icmp eq ptr %4, null
  br i1 %.not, label %10, label %5

5:                                                ; preds = %2
  %6 = getelementptr inbounds nuw i8, ptr %1, i64 24
  %7 = load i64, ptr %6, align 8
  %8 = getelementptr inbounds nuw ptr, ptr %4, i64 %7
  %9 = load ptr, ptr %8, align 8
  %.not16 = icmp eq ptr %9, null
  br i1 %.not16, label %16, label %.thread

10:                                               ; preds = %2
  %11 = tail call noalias noundef dereferenceable_or_null(8) ptr @malloc(i64 noundef 8) #25
  store ptr %11, ptr %3, align 8
  %.not28.i = icmp eq ptr %11, null
  br i1 %.not28.i, label %12, label %13

12:                                               ; preds = %10
  tail call fastcc void @yy_fatal_error(ptr noundef nonnull @.str.34) #26
  unreachable

13:                                               ; preds = %10
  store i64 0, ptr %11, align 8
  %14 = getelementptr inbounds nuw i8, ptr %1, i64 32
  store i64 1, ptr %14, align 8
  %15 = getelementptr inbounds nuw i8, ptr %1, i64 24
  store i64 0, ptr %15, align 8
  br label %28

16:                                               ; preds = %5
  %17 = getelementptr inbounds nuw i8, ptr %1, i64 32
  %18 = load i64, ptr %17, align 8
  %19 = add i64 %18, -1
  %.not29.i = icmp ult i64 %7, %19
  br i1 %.not29.i, label %28, label %20

20:                                               ; preds = %16
  %21 = add i64 %18, 8
  %22 = shl i64 %21, 3
  %23 = tail call noalias noundef ptr @realloc(ptr noundef nonnull %4, i64 noundef %22) #27
  store ptr %23, ptr %3, align 8
  %.not30.i = icmp eq ptr %23, null
  br i1 %.not30.i, label %24, label %25

24:                                               ; preds = %20
  tail call fastcc void @yy_fatal_error(ptr noundef nonnull @.str.34) #26
  unreachable

25:                                               ; preds = %20
  %26 = load i64, ptr %17, align 8
  %27 = getelementptr inbounds nuw ptr, ptr %23, i64 %26
  tail call void @llvm.memset.p0.i64(ptr noundef nonnull align 8 dereferenceable(64) %27, i8 0, i64 64, i1 false)
  store i64 %21, ptr %17, align 8
  br label %28

28:                                               ; preds = %25, %16, %13
  %29 = getelementptr inbounds nuw i8, ptr %1, i64 8
  %30 = load ptr, ptr %29, align 8
  %31 = tail call ptr @GUC_yy_create_buffer(ptr noundef %30, i32 noundef 16384, ptr noundef nonnull %1)
  %32 = load ptr, ptr %3, align 8
  %33 = getelementptr inbounds nuw i8, ptr %1, i64 24
  %34 = load i64, ptr %33, align 8
  %35 = getelementptr inbounds nuw ptr, ptr %32, i64 %34
  store ptr %31, ptr %35, align 8
  %.pre = load ptr, ptr %3, align 8
  %.not17 = icmp eq ptr %.pre, null
  br i1 %.not17, label %.thread19, label %.thread

.thread19:                                        ; preds = %28
  %36 = tail call ptr @__errno_location() #29
  %37 = load i32, ptr %36, align 4
  br label %GUC_yy_flush_buffer.exit.i

.thread:                                          ; preds = %5, %28
  %38 = phi ptr [ %.pre, %28 ], [ %4, %5 ]
  %39 = getelementptr inbounds nuw i8, ptr %1, i64 24
  %40 = load i64, ptr %39, align 8
  %41 = getelementptr inbounds nuw ptr, ptr %38, i64 %40
  %42 = load ptr, ptr %41, align 8
  %43 = tail call ptr @__errno_location() #29
  %44 = load i32, ptr %43, align 4
  %.not.i.i = icmp eq ptr %42, null
  br i1 %.not.i.i, label %GUC_yy_flush_buffer.exit.i, label %45

45:                                               ; preds = %.thread
  %46 = getelementptr inbounds nuw i8, ptr %42, i64 28
  store i32 0, ptr %46, align 4
  %47 = getelementptr inbounds nuw i8, ptr %42, i64 8
  %48 = load ptr, ptr %47, align 8
  store i8 0, ptr %48, align 1
  %49 = load ptr, ptr %47, align 8
  %50 = getelementptr inbounds nuw i8, ptr %49, i64 1
  store i8 0, ptr %50, align 1
  %51 = load ptr, ptr %47, align 8
  %52 = getelementptr inbounds nuw i8, ptr %42, i64 16
  store ptr %51, ptr %52, align 8
  %53 = getelementptr inbounds nuw i8, ptr %42, i64 40
  store i32 1, ptr %53, align 8
  %54 = getelementptr inbounds nuw i8, ptr %42, i64 56
  store i32 0, ptr %54, align 8
  %55 = load ptr, ptr %3, align 8
  %.not15.i.i = icmp eq ptr %55, null
  br i1 %.not15.i.i, label %GUC_yy_flush_buffer.exit.i, label %56

56:                                               ; preds = %45
  %57 = load i64, ptr %39, align 8
  %58 = getelementptr inbounds nuw ptr, ptr %55, i64 %57
  %59 = load ptr, ptr %58, align 8
  %60 = icmp eq ptr %42, %59
  br i1 %60, label %61, label %GUC_yy_flush_buffer.exit.i

61:                                               ; preds = %56
  %62 = getelementptr inbounds nuw i8, ptr %59, i64 28
  %63 = load i32, ptr %62, align 4
  %64 = getelementptr inbounds nuw i8, ptr %1, i64 52
  store i32 %63, ptr %64, align 4
  %65 = load ptr, ptr %58, align 8
  %66 = getelementptr inbounds nuw i8, ptr %65, i64 16
  %67 = load ptr, ptr %66, align 8
  %68 = getelementptr inbounds nuw i8, ptr %1, i64 64
  store ptr %67, ptr %68, align 8
  %69 = getelementptr inbounds nuw i8, ptr %1, i64 128
  store ptr %67, ptr %69, align 8
  %70 = load ptr, ptr %58, align 8
  %71 = load ptr, ptr %70, align 8
  %72 = getelementptr inbounds nuw i8, ptr %1, i64 8
  store ptr %71, ptr %72, align 8
  %73 = load i8, ptr %67, align 1
  %74 = getelementptr inbounds nuw i8, ptr %1, i64 48
  store i8 %73, ptr %74, align 8
  br label %GUC_yy_flush_buffer.exit.i

GUC_yy_flush_buffer.exit.i:                       ; preds = %.thread19, %61, %56, %45, %.thread
  %75 = phi i32 [ %37, %.thread19 ], [ %44, %61 ], [ %44, %56 ], [ %44, %45 ], [ %44, %.thread ]
  %76 = phi ptr [ %36, %.thread19 ], [ %43, %61 ], [ %43, %56 ], [ %43, %45 ], [ %43, %.thread ]
  %77 = phi ptr [ null, %.thread19 ], [ %42, %61 ], [ %42, %56 ], [ %42, %45 ], [ null, %.thread ]
  store ptr %0, ptr %77, align 8
  %78 = getelementptr inbounds nuw i8, ptr %77, i64 52
  store i32 1, ptr %78, align 4
  %79 = load ptr, ptr %3, align 8
  %.not.i18 = icmp eq ptr %79, null
  br i1 %.not.i18, label %.thread.i, label %80

80:                                               ; preds = %GUC_yy_flush_buffer.exit.i
  %81 = getelementptr inbounds nuw i8, ptr %1, i64 24
  %82 = load i64, ptr %81, align 8
  %83 = getelementptr inbounds nuw ptr, ptr %79, i64 %82
  %84 = load ptr, ptr %83, align 8
  %.not14.i = icmp eq ptr %77, %84
  br i1 %.not14.i, label %GUC_yy_init_buffer.exit, label %.thread.i

.thread.i:                                        ; preds = %80, %GUC_yy_flush_buffer.exit.i
  %85 = getelementptr inbounds nuw i8, ptr %77, i64 44
  store i32 1, ptr %85, align 4
  %86 = getelementptr inbounds nuw i8, ptr %77, i64 48
  store i32 0, ptr %86, align 8
  br label %GUC_yy_init_buffer.exit

GUC_yy_init_buffer.exit:                          ; preds = %80, %.thread.i
  %87 = getelementptr inbounds nuw i8, ptr %77, i64 36
  store i32 0, ptr %87, align 4
  store i32 %75, ptr %76, align 4
  %88 = load ptr, ptr %3, align 8
  %89 = getelementptr inbounds nuw i8, ptr %1, i64 24
  %90 = load i64, ptr %89, align 8
  %91 = getelementptr inbounds nuw ptr, ptr %88, i64 %90
  %92 = load ptr, ptr %91, align 8
  %93 = getelementptr inbounds nuw i8, ptr %92, i64 28
  %94 = load i32, ptr %93, align 4
  %95 = getelementptr inbounds nuw i8, ptr %1, i64 52
  store i32 %94, ptr %95, align 4
  %96 = load ptr, ptr %91, align 8
  %97 = getelementptr inbounds nuw i8, ptr %96, i64 16
  %98 = load ptr, ptr %97, align 8
  %99 = getelementptr inbounds nuw i8, ptr %1, i64 64
  store ptr %98, ptr %99, align 8
  %100 = getelementptr inbounds nuw i8, ptr %1, i64 128
  store ptr %98, ptr %100, align 8
  %101 = load ptr, ptr %91, align 8
  %102 = load ptr, ptr %101, align 8
  %103 = getelementptr inbounds nuw i8, ptr %1, i64 8
  store ptr %102, ptr %103, align 8
  %104 = load i8, ptr %98, align 1
  %105 = getelementptr inbounds nuw i8, ptr %1, i64 48
  store i8 %104, ptr %105, align 8
  ret void
}